; Function Attrs: mustprogress ssp uwtable
define void @_ZN6open3d8geometry9TetraMesh20CreateFromPointCloudERKNS0_10PointCloudE(ptr dead_on_unwind noalias writable sret(%"class.std::tuple") align 8 %0, ptr noundef nonnull align 8 dereferenceable(144) %1) local_unnamed_addr #1 align 2 {
  %3 = getelementptr inbounds nuw i8, ptr %1, i64 48
  %4 = getelementptr inbounds nuw i8, ptr %1, i64 56
  %5 = load ptr, ptr %4, align 8, !tbaa !4
  %6 = load ptr, ptr %3, align 8, !tbaa !10
  %7 = ptrtoint ptr %5 to i64
  %8 = ptrtoint ptr %6 to i64
  %9 = sub i64 %7, %8
  %10 = sdiv exact i64 %9, 24
  %11 = icmp ult i64 %10, 4
  br i1 %11, label %12, label %13

12:                                               ; preds = %2
  tail call void @_ZN6open3d7utility6Logger9LogError_IJEEEvPKciS4_S4_DpOT_(ptr noundef nonnull @.str, i32 noundef 19, ptr noundef nonnull @__PRETTY_FUNCTION__._ZN6open3d8geometry9TetraMesh20CreateFromPointCloudERKNS0_10PointCloudE, ptr noundef nonnull @.str.3) #10
  unreachable

13:                                               ; preds = %2
  tail call void @_ZN6open3d8geometry5Qhull33ComputeDelaunayTetrahedralizationERKSt6vectorIN5Eigen6MatrixIdLi3ELi1ELi0ELi3ELi1EEESaIS5_EE(ptr dead_on_unwind writable sret(%"class.std::tuple") align 8 %0, ptr noundef nonnull align 8 dereferenceable(24) %3)
  ret void
}